; Function Attrs: nounwind uwtable
define hidden noundef nonnull ptr @MD5(ptr noundef %0, i64 noundef %1, ptr noundef writeonly captures(address_is_null, ret: address, provenance) %2) local_unnamed_addr #0 {
  %4 = alloca %struct.md5_state_st, align 4
  call void @llvm.lifetime.start.p0(i64 92, ptr nonnull %4) #6
  %5 = getelementptr inbounds nuw i8, ptr %4, i64 16
  call void @llvm.memset.p0.i64(ptr noundef nonnull align 4 dereferenceable(92) %5, i8 0, i64 76, i1 false)
  store i32 1732584193, ptr %4, align 4, !tbaa !6
  %6 = getelementptr inbounds nuw i8, ptr %4, i64 4
  store i32 -271733879, ptr %6, align 4, !tbaa !6
  %7 = getelementptr inbounds nuw i8, ptr %4, i64 8
  store i32 -1732584194, ptr %7, align 4, !tbaa !6
  %8 = getelementptr inbounds nuw i8, ptr %4, i64 12
  store i32 271733878, ptr %8, align 4, !tbaa !6
  %9 = icmp eq i64 %1, 0
  br i1 %9, label %MD5_Update.exit, label %10

10:                                               ; preds = %3
  %11 = trunc i64 %1 to i32
  %12 = shl i32 %11, 3
  %13 = getelementptr inbounds nuw i8, ptr %4, i64 20
  %14 = lshr i64 %1, 29
  %15 = trunc i64 %14 to i32
  store i32 %15, ptr %13, align 4, !tbaa !10
  store i32 %12, ptr %5, align 4, !tbaa !12
  %16 = getelementptr inbounds nuw i8, ptr %4, i64 88
  %.not57.i = icmp ult i64 %1, 64
  br i1 %.not57.i, label %.thread, label %17

17:                                               ; preds = %10
  %18 = lshr i64 %1, 6
  call void @md5_block_asm_data_order(ptr noundef nonnull %4, ptr noundef %0, i64 noundef %18) #6
  %19 = and i64 %1, -64
  %20 = getelementptr inbounds nuw i8, ptr %0, i64 %19
  %21 = and i64 %1, 63
  %.not58.i = icmp eq i64 %21, 0
  br i1 %.not58.i, label %MD5_Update.exit, label %.thread

.thread:                                          ; preds = %10, %17
  %.152.i8 = phi ptr [ %20, %17 ], [ %0, %10 ]
  %.154.i7 = phi i64 [ %21, %17 ], [ %1, %10 ]
  %22 = trunc nuw i64 %.154.i7 to i32
  store i32 %22, ptr %16, align 4, !tbaa !13
  %23 = getelementptr inbounds nuw i8, ptr %4, i64 24
  call void @llvm.memcpy.p0.p0.i64(ptr nonnull align 4 %23, ptr align 1 %.152.i8, i64 %.154.i7, i1 false)
  br label %MD5_Update.exit

MD5_Update.exit:                                  ; preds = %3, %17, %.thread
  %24 = icmp eq ptr %2, null
  %spec.store.select = select i1 %24, ptr @MD5.digest, ptr %2
  %25 = call i32 @MD5_Final(ptr noundef nonnull %spec.store.select, ptr noundef nonnull %4)
  call void @llvm.lifetime.end.p0(i64 92, ptr nonnull %4) #6
  ret ptr %spec.store.select
}